; Function Attrs: mustprogress uwtable
define noundef i32 @_ZNK6icu_7517RuleBasedCollator7compareERKNS_13UnicodeStringES3_iR10UErrorCode(ptr nocapture noundef nonnull readonly align 8 dereferenceable(272) %this, ptr noundef nonnull align 8 dereferenceable(64) %left, ptr noundef nonnull align 8 dereferenceable(64) %right, i32 noundef %length, ptr noundef nonnull align 4 dereferenceable(4) %errorCode) unnamed_addr #1 align 2 {
entry:
  %0 = load i32, ptr %errorCode, align 4
  %cmp.i = icmp sgt i32 %0, 0
  %cmp = icmp eq i32 %length, 0
  %or.cond = or i1 %cmp, %cmp.i
  br i1 %or.cond, label %return, label %if.end

if.end:                                           ; preds = %entry
  %cmp2 = icmp slt i32 %length, 0
  br i1 %cmp2, label %if.then3, label %if.end4

if.then3:                                         ; preds = %if.end
  store i32 1, ptr %errorCode, align 4
  br label %return

if.end4:                                          ; preds = %if.end
  %fUnion.i.i = getelementptr inbounds i8, ptr %left, i64 8
  %1 = load i16, ptr %fUnion.i.i, align 8
  %cmp.i.i = icmp slt i16 %1, 0
  %2 = ashr i16 %1, 5
  %shr.i.i = sext i16 %2 to i32
  %fLength.i = getelementptr inbounds i8, ptr %left, i64 12
  %3 = load i32, ptr %fLength.i, align 4
  %cond.i = select i1 %cmp.i.i, i32 %3, i32 %shr.i.i
  %fUnion.i.i12 = getelementptr inbounds i8, ptr %right, i64 8
  %4 = load i16, ptr %fUnion.i.i12, align 8
  %cmp.i.i13 = icmp slt i16 %4, 0
  %5 = ashr i16 %4, 5
  %shr.i.i14 = sext i16 %5 to i32
  %fLength.i15 = getelementptr inbounds i8, ptr %right, i64 12
  %6 = load i32, ptr %fLength.i15, align 4
  %cond.i16 = select i1 %cmp.i.i13, i32 %6, i32 %shr.i.i14
  %spec.select = tail call i32 @llvm.smin.i32(i32 %cond.i, i32 %length)
  %rightLength.0 = tail call i32 @llvm.smin.i32(i32 %cond.i16, i32 %length)
  %conv1.i = zext i16 %1 to i32
  %and.i = and i32 %conv1.i, 17
  %tobool.not.i = icmp eq i32 %and.i, 0
  br i1 %tobool.not.i, label %if.else.i, label %_ZNK6icu_7513UnicodeString9getBufferEv.exit

if.else.i:                                        ; preds = %if.end4
  %and5.i = and i32 %conv1.i, 2
  %tobool6.not.i = icmp eq i32 %and5.i, 0
  br i1 %tobool6.not.i, label %if.else9.i, label %if.then7.i

if.then7.i:                                       ; preds = %if.else.i
  %fBuffer.i = getelementptr inbounds i8, ptr %left, i64 10
  br label %_ZNK6icu_7513UnicodeString9getBufferEv.exit

if.else9.i:                                       ; preds = %if.else.i
  %fArray.i = getelementptr inbounds i8, ptr %left, i64 24
  %7 = load ptr, ptr %fArray.i, align 8
  br label %_ZNK6icu_7513UnicodeString9getBufferEv.exit

_ZNK6icu_7513UnicodeString9getBufferEv.exit:      ; preds = %if.end4, %if.then7.i, %if.else9.i
  %retval.0.i = phi ptr [ %fBuffer.i, %if.then7.i ], [ %7, %if.else9.i ], [ null, %if.end4 ]
  %conv1.i18 = zext i16 %4 to i32
  %and.i19 = and i32 %conv1.i18, 17
  %tobool.not.i20 = icmp eq i32 %and.i19, 0
  br i1 %tobool.not.i20, label %if.else.i22, label %_ZNK6icu_7513UnicodeString9getBufferEv.exit29

if.else.i22:                                      ; preds = %_ZNK6icu_7513UnicodeString9getBufferEv.exit
  %and5.i23 = and i32 %conv1.i18, 2
  %tobool6.not.i24 = icmp eq i32 %and5.i23, 0
  br i1 %tobool6.not.i24, label %if.else9.i27, label %if.then7.i25

if.then7.i25:                                     ; preds = %if.else.i22
  %fBuffer.i26 = getelementptr inbounds i8, ptr %right, i64 10
  br label %_ZNK6icu_7513UnicodeString9getBufferEv.exit29

if.else9.i27:                                     ; preds = %if.else.i22
  %fArray.i28 = getelementptr inbounds i8, ptr %right, i64 24
  %8 = load ptr, ptr %fArray.i28, align 8
  br label %_ZNK6icu_7513UnicodeString9getBufferEv.exit29

_ZNK6icu_7513UnicodeString9getBufferEv.exit29:    ; preds = %_ZNK6icu_7513UnicodeString9getBufferEv.exit, %if.then7.i25, %if.else9.i27
  %retval.0.i21 = phi ptr [ %fBuffer.i26, %if.then7.i25 ], [ %8, %if.else9.i27 ], [ null, %_ZNK6icu_7513UnicodeString9getBufferEv.exit ]
  %call15 = tail call noundef i32 @_ZNK6icu_7517RuleBasedCollator9doCompareEPKDsiS2_iR10UErrorCode(ptr noundef nonnull align 8 dereferenceable(272) %this, ptr noundef %retval.0.i, i32 noundef %spec.select, ptr noundef %retval.0.i21, i32 noundef %rightLength.0, ptr noundef nonnull align 4 dereferenceable(4) %errorCode)
  br label %return

return:                                           ; preds = %entry, %_ZNK6icu_7513UnicodeString9getBufferEv.exit29, %if.then3
  %retval.0 = phi i32 [ 0, %if.then3 ], [ %call15, %_ZNK6icu_7513UnicodeString9getBufferEv.exit29 ], [ 0, %entry ]
  ret i32 %retval.0
}